; ModuleID = 'source-C-CXX/25/569.c'
source_filename = "source-C-CXX/25/569.c"
target datalayout = "e-m:e-p270:32:32-p271:32:32-p272:64:64-i64:64-f80:128-n8:16:32:64-S128"
target triple = "x86_64-pc-linux-gnu"

; Function Attrs: nounwind sspstrong uwtable
define dso_local i32 @main() local_unnamed_addr #0 {
  %1 = alloca [200 x i8], align 16
  %2 = getelementptr inbounds [200 x i8], [200 x i8]* %1, i64 0, i64 0
  call void @llvm.lifetime.start.p0i8(i64 200, i8* nonnull %2) #5
  %3 = call i32 (i8*, ...) bitcast (i32 (...)* @gets to i32 (i8*, ...)*)(i8* nonnull %2) #5
  %4 = load i8, i8* %2, align 16
  %5 = icmp eq i8 %4, 0
  br i1 %5, label %33, label %6

6:                                                ; preds = %0, %30
  %7 = phi i8 [ %32, %30 ], [ %4, %0 ]
  %8 = phi i32 [ %26, %30 ], [ 0, %0 ]
  %9 = icmp eq i8 %7, 32
  br i1 %9, label %13, label %10

10:                                               ; preds = %6
  %11 = sext i8 %7 to i32
  %12 = call i32 @putchar(i32 %11)
  br label %24

13:                                               ; preds = %6
  %14 = call i32 @putchar(i32 32)
  %15 = sext i32 %8 to i64
  br label %16

16:                                               ; preds = %16, %13
  %17 = phi i64 [ %18, %16 ], [ %15, %13 ]
  %18 = add nsw i64 %17, 1
  %19 = getelementptr inbounds [200 x i8], [200 x i8]* %1, i64 0, i64 %18
  %20 = load i8, i8* %19, align 1, !tbaa !5
  %21 = icmp eq i8 %20, 32
  br i1 %21, label %16, label %22

22:                                               ; preds = %16
  %23 = trunc i64 %17 to i32
  br label %24

24:                                               ; preds = %22, %10
  %25 = phi i32 [ %8, %10 ], [ %23, %22 ]
  %26 = add nsw i32 %25, 1
  %27 = sext i32 %26 to i64
  %28 = call i64 @strlen(i8* noundef nonnull %2) #6
  %29 = icmp ugt i64 %28, %27
  br i1 %29, label %30, label %33, !llvm.loop !8

30:                                               ; preds = %24
  %31 = getelementptr inbounds [200 x i8], [200 x i8]* %1, i64 0, i64 %27
  %32 = load i8, i8* %31, align 1, !tbaa !5
  br label %6

33:                                               ; preds = %24, %0
  call void @llvm.lifetime.end.p0i8(i64 200, i8* nonnull %2) #5
  ret i32 0
}

; Function Attrs: argmemonly mustprogress nofree nosync nounwind willreturn
declare void @llvm.lifetime.start.p0i8(i64 immarg, i8* nocapture) #1

declare i32 @gets(...) local_unnamed_addr #2

; Function Attrs: argmemonly mustprogress nofree nounwind readonly willreturn
declare i64 @strlen(i8* nocapture) local_unnamed_addr #3

; Function Attrs: argmemonly mustprogress nofree nosync nounwind willreturn
declare void @llvm.lifetime.end.p0i8(i64 immarg, i8* nocapture) #1

; Function Attrs: nofree nounwind
declare noundef i32 @putchar(i32 noundef) local_unnamed_addr #4


!llvm.module.flags = !{!0, !1, !2, !3}
!llvm.ident = !{!4}

!0 = !{i32 1, !"wchar_size", i32 4}
!1 = !{i32 7, !"PIC Level", i32 2}
!2 = !{i32 7, !"PIE Level", i32 2}
!3 = !{i32 7, !"uwtable", i32 1}
!4 = !{!"clang version 13.0.0"}
!5 = !{!6, !6, i64 0}
!6 = !{!"omnipotent char", !7, i64 0}
!7 = !{!"Simple C/C++ TBAA"}
!8 = distinct !{!8, !9}
!9 = !{!"llvm.loop.mustprogress"}
